; Function Attrs: mustprogress uwtable
define internal fastcc void @_ZL15write_utf8_fileP11_FileStreamN6icu_7713UnicodeStringE(ptr noundef %0, ptr noundef nonnull %1) unnamed_addr #2 {
  %3 = alloca i32, align 4
  %4 = alloca i32, align 4
  call void @llvm.lifetime.start.p0(i64 4, ptr nonnull %3) #13
  store i32 0, ptr %3, align 4, !tbaa !13
  call void @llvm.lifetime.start.p0(i64 4, ptr nonnull %4) #13
  store i32 0, ptr %4, align 4, !tbaa !6
  %5 = getelementptr inbounds nuw i8, ptr %1, i64 8
  %6 = load i16, ptr %5, align 8, !tbaa !11
  %7 = and i16 %6, 17
  %.not.i = icmp eq i16 %7, 0
  br i1 %.not.i, label %8, label %_ZNK6icu_7713UnicodeString9getBufferEv.exit

8:                                                ; preds = %2
  %9 = and i16 %6, 2
  %.not2.i = icmp eq i16 %9, 0
  br i1 %.not2.i, label %12, label %10

10:                                               ; preds = %8
  %11 = getelementptr inbounds nuw i8, ptr %1, i64 10
  br label %_ZNK6icu_7713UnicodeString9getBufferEv.exit

12:                                               ; preds = %8
  %13 = getelementptr inbounds nuw i8, ptr %1, i64 24
  %14 = load ptr, ptr %13, align 8, !tbaa !11
  br label %_ZNK6icu_7713UnicodeString9getBufferEv.exit

_ZNK6icu_7713UnicodeString9getBufferEv.exit:      ; preds = %2, %10, %12
  %.0.i = phi ptr [ %11, %10 ], [ %14, %12 ], [ null, %2 ]
  tail call void asm sideeffect "", "rm,~{memory},~{dirflag},~{fpsr},~{flags}"(ptr %.0.i) #13, !srcloc !24
  %15 = load i16, ptr %5, align 8, !tbaa !11
  %16 = icmp slt i16 %15, 0
  %17 = ashr i16 %15, 5
  %18 = sext i16 %17 to i32
  %19 = getelementptr inbounds nuw i8, ptr %1, i64 12
  %20 = load i32, ptr %19, align 4
  %21 = select i1 %16, i32 %20, i32 %18
  %22 = call ptr @u_strToUTF8_77(ptr noundef null, i32 noundef 0, ptr noundef nonnull %4, ptr noundef %.0.i, i32 noundef %21, ptr noundef nonnull %3)
  %23 = load i32, ptr %4, align 4, !tbaa !6
  %24 = sext i32 %23 to i64
  %25 = call noalias ptr @uprv_malloc_77(i64 noundef %24) #14
  store i32 0, ptr %3, align 4, !tbaa !13
  %26 = load i32, ptr %4, align 4, !tbaa !6
  %27 = load i16, ptr %5, align 8, !tbaa !11
  %28 = and i16 %27, 17
  %.not.i4 = icmp eq i16 %28, 0
  br i1 %.not.i4, label %29, label %_ZNK6icu_7713UnicodeString9getBufferEv.exit7

29:                                               ; preds = %_ZNK6icu_7713UnicodeString9getBufferEv.exit
  %30 = and i16 %27, 2
  %.not2.i6 = icmp eq i16 %30, 0
  br i1 %.not2.i6, label %33, label %31

31:                                               ; preds = %29
  %32 = getelementptr inbounds nuw i8, ptr %1, i64 10
  br label %_ZNK6icu_7713UnicodeString9getBufferEv.exit7

33:                                               ; preds = %29
  %34 = getelementptr inbounds nuw i8, ptr %1, i64 24
  %35 = load ptr, ptr %34, align 8, !tbaa !11
  br label %_ZNK6icu_7713UnicodeString9getBufferEv.exit7

_ZNK6icu_7713UnicodeString9getBufferEv.exit7:     ; preds = %_ZNK6icu_7713UnicodeString9getBufferEv.exit, %31, %33
  %.0.i5 = phi ptr [ %32, %31 ], [ %35, %33 ], [ null, %_ZNK6icu_7713UnicodeString9getBufferEv.exit ]
  call void asm sideeffect "", "rm,~{memory},~{dirflag},~{fpsr},~{flags}"(ptr %.0.i5) #13, !srcloc !24
  %36 = load i16, ptr %5, align 8, !tbaa !11
  %37 = icmp slt i16 %36, 0
  %38 = ashr i16 %36, 5
  %39 = sext i16 %38 to i32
  %40 = load i32, ptr %19, align 4
  %41 = select i1 %37, i32 %40, i32 %39
  %42 = call ptr @u_strToUTF8_77(ptr noundef %25, i32 noundef %26, ptr noundef nonnull %4, ptr noundef %.0.i5, i32 noundef %41, ptr noundef nonnull %3)
  %43 = load i32, ptr %4, align 4, !tbaa !6
  %44 = call i32 @T_FileStream_write(ptr noundef %0, ptr noundef %25, i32 noundef %43)
  call void @uprv_free_77(ptr noundef %25)
  call void @llvm.lifetime.end.p0(i64 4, ptr nonnull %4) #13
  call void @llvm.lifetime.end.p0(i64 4, ptr nonnull %3) #13
  ret void
}